; ModuleID = '32/546.c'
source_filename = "32/546.c"
target datalayout = "e-m:e-p270:32:32-p271:32:32-p272:64:64-i64:64-f80:128-n8:16:32:64-S128"
target triple = "x86_64-pc-linux-gnu"

@.str = private unnamed_addr constant [3 x i8] c"%d\00", align 1
@.str.1 = private unnamed_addr constant [3 x i8] c"%s\00", align 1
@.str.2 = private unnamed_addr constant [2 x i8] c"\0A\00", align 1
@.str.3 = private unnamed_addr constant [3 x i8] c"%c\00", align 1

; Function Attrs: noinline nounwind uwtable
define dso_local void @main() #0 {
  %1 = alloca i32, align 4
  %2 = alloca i32, align 4
  %3 = alloca i32, align 4
  %4 = alloca i32, align 4
  %5 = alloca i32, align 4
  %6 = alloca i32, align 4
  %7 = alloca i32, align 4
  %8 = alloca [101 x i8], align 16
  %9 = alloca [101 x i8], align 16
  %10 = alloca [101 x i8], align 16
  %11 = call i32 (i8*, ...) @__isoc99_scanf(i8* getelementptr inbounds ([3 x i8], [3 x i8]* @.str, i64 0, i64 0), i32* %1)
  store i32 1, i32* %7, align 4
  br label %12

12:                                               ; preds = %144, %0
  %13 = load i32, i32* %7, align 4
  %14 = load i32, i32* %1, align 4
  %15 = icmp sle i32 %13, %14
  br i1 %15, label %16, label %148

16:                                               ; preds = %12
  %17 = call i32 (i8*, ...) @__isoc99_scanf(i8* getelementptr inbounds ([3 x i8], [3 x i8]* @.str.1, i64 0, i64 0), [101 x i8]* %8)
  %18 = call i32 (i8*, ...) @__isoc99_scanf(i8* getelementptr inbounds ([3 x i8], [3 x i8]* @.str.1, i64 0, i64 0), [101 x i8]* %9)
  %19 = call i32 (i8*, ...) @printf(i8* getelementptr inbounds ([2 x i8], [2 x i8]* @.str.2, i64 0, i64 0))
  %20 = getelementptr inbounds [101 x i8], [101 x i8]* %8, i64 0, i64 0
  %21 = call i64 @strlen(i8* %20) #3
  %22 = sub i64 %21, 1
  %23 = trunc i64 %22 to i32
  store i32 %23, i32* %2, align 4
  %24 = getelementptr inbounds [101 x i8], [101 x i8]* %9, i64 0, i64 0
  %25 = call i64 @strlen(i8* %24) #3
  %26 = sub i64 %25, 1
  %27 = trunc i64 %26 to i32
  store i32 %27, i32* %3, align 4
  %28 = load i32, i32* %2, align 4
  store i32 %28, i32* %5, align 4
  br label %29

29:                                               ; preds = %108, %16
  %30 = load i32, i32* %3, align 4
  %31 = icmp sge i32 %30, 0
  br i1 %31, label %32, label %113

32:                                               ; preds = %29
  %33 = load i32, i32* %2, align 4
  %34 = sext i32 %33 to i64
  %35 = getelementptr inbounds [101 x i8], [101 x i8]* %8, i64 0, i64 %34
  %36 = load i8, i8* %35, align 1
  %37 = sext i8 %36 to i32
  %38 = load i32, i32* %3, align 4
  %39 = sext i32 %38 to i64
  %40 = getelementptr inbounds [101 x i8], [101 x i8]* %9, i64 0, i64 %39
  %41 = load i8, i8* %40, align 1
  %42 = sext i8 %41 to i32
  %43 = icmp sge i32 %37, %42
  br i1 %43, label %44, label %61

44:                                               ; preds = %32
  %45 = load i32, i32* %2, align 4
  %46 = sext i32 %45 to i64
  %47 = getelementptr inbounds [101 x i8], [101 x i8]* %8, i64 0, i64 %46
  %48 = load i8, i8* %47, align 1
  %49 = sext i8 %48 to i32
  %50 = load i32, i32* %3, align 4
  %51 = sext i32 %50 to i64
  %52 = getelementptr inbounds [101 x i8], [101 x i8]* %9, i64 0, i64 %51
  %53 = load i8, i8* %52, align 1
  %54 = sext i8 %53 to i32
  %55 = sub nsw i32 %49, %54
  %56 = add nsw i32 %55, 48
  %57 = trunc i32 %56 to i8
  %58 = load i32, i32* %2, align 4
  %59 = sext i32 %58 to i64
  %60 = getelementptr inbounds [101 x i8], [101 x i8]* %10, i64 0, i64 %59
  store i8 %57, i8* %60, align 1
  br label %108

61:                                               ; preds = %32
  %62 = load i32, i32* %2, align 4
  %63 = sext i32 %62 to i64
  %64 = getelementptr inbounds [101 x i8], [101 x i8]* %8, i64 0, i64 %63
  %65 = load i8, i8* %64, align 1
  %66 = sext i8 %65 to i32
  %67 = add nsw i32 %66, 10
  %68 = trunc i32 %67 to i8
  store i8 %68, i8* %64, align 1
  %69 = load i32, i32* %2, align 4
  %70 = sub nsw i32 %69, 1
  store i32 %70, i32* %4, align 4
  br label %71

71:                                               ; preds = %78, %61
  %72 = load i32, i32* %4, align 4
  %73 = sext i32 %72 to i64
  %74 = getelementptr inbounds [101 x i8], [101 x i8]* %8, i64 0, i64 %73
  %75 = load i8, i8* %74, align 1
  %76 = sext i8 %75 to i32
  %77 = icmp eq i32 %76, 48
  br i1 %77, label %78, label %84

78:                                               ; preds = %71
  %79 = load i32, i32* %4, align 4
  %80 = sext i32 %79 to i64
  %81 = getelementptr inbounds [101 x i8], [101 x i8]* %8, i64 0, i64 %80
  store i8 57, i8* %81, align 1
  %82 = load i32, i32* %4, align 4
  %83 = add nsw i32 %82, -1
  store i32 %83, i32* %4, align 4
  br label %71

84:                                               ; preds = %71
  %85 = load i32, i32* %4, align 4
  %86 = sext i32 %85 to i64
  %87 = getelementptr inbounds [101 x i8], [101 x i8]* %8, i64 0, i64 %86
  %88 = load i8, i8* %87, align 1
  %89 = sext i8 %88 to i32
  %90 = sub nsw i32 %89, 1
  %91 = trunc i32 %90 to i8
  store i8 %91, i8* %87, align 1
  %92 = load i32, i32* %2, align 4
  %93 = sext i32 %92 to i64
  %94 = getelementptr inbounds [101 x i8], [101 x i8]* %8, i64 0, i64 %93
  %95 = load i8, i8* %94, align 1
  %96 = sext i8 %95 to i32
  %97 = load i32, i32* %3, align 4
  %98 = sext i32 %97 to i64
  %99 = getelementptr inbounds [101 x i8], [101 x i8]* %9, i64 0, i64 %98
  %100 = load i8, i8* %99, align 1
  %101 = sext i8 %100 to i32
  %102 = sub nsw i32 %96, %101
  %103 = add nsw i32 %102, 48
  %104 = trunc i32 %103 to i8
  %105 = load i32, i32* %2, align 4
  %106 = sext i32 %105 to i64
  %107 = getelementptr inbounds [101 x i8], [101 x i8]* %10, i64 0, i64 %106
  store i8 %104, i8* %107, align 1
  br label %108

108:                                              ; preds = %84, %44
  %109 = load i32, i32* %2, align 4
  %110 = add nsw i32 %109, -1
  store i32 %110, i32* %2, align 4
  %111 = load i32, i32* %3, align 4
  %112 = add nsw i32 %111, -1
  store i32 %112, i32* %3, align 4
  br label %29

113:                                              ; preds = %29
  br label %114

114:                                              ; preds = %117, %113
  %115 = load i32, i32* %2, align 4
  %116 = icmp sge i32 %115, 0
  br i1 %116, label %117, label %127

117:                                              ; preds = %114
  %118 = load i32, i32* %2, align 4
  %119 = sext i32 %118 to i64
  %120 = getelementptr inbounds [101 x i8], [101 x i8]* %8, i64 0, i64 %119
  %121 = load i8, i8* %120, align 1
  %122 = load i32, i32* %2, align 4
  %123 = sext i32 %122 to i64
  %124 = getelementptr inbounds [101 x i8], [101 x i8]* %10, i64 0, i64 %123
  store i8 %121, i8* %124, align 1
  %125 = load i32, i32* %2, align 4
  %126 = add nsw i32 %125, -1
  store i32 %126, i32* %2, align 4
  br label %114

127:                                              ; preds = %114
  %128 = load i32, i32* %5, align 4
  store i32 %128, i32* %6, align 4
  br label %129

129:                                              ; preds = %141, %127
  %130 = load i32, i32* %6, align 4
  %131 = icmp sge i32 %130, 0
  br i1 %131, label %132, label %144

132:                                              ; preds = %129
  %133 = load i32, i32* %5, align 4
  %134 = load i32, i32* %6, align 4
  %135 = sub nsw i32 %133, %134
  %136 = sext i32 %135 to i64
  %137 = getelementptr inbounds [101 x i8], [101 x i8]* %10, i64 0, i64 %136
  %138 = load i8, i8* %137, align 1
  %139 = sext i8 %138 to i32
  %140 = call i32 (i8*, ...) @printf(i8* getelementptr inbounds ([3 x i8], [3 x i8]* @.str.3, i64 0, i64 0), i32 %139)
  br label %141

141:                                              ; preds = %132
  %142 = load i32, i32* %6, align 4
  %143 = add nsw i32 %142, -1
  store i32 %143, i32* %6, align 4
  br label %129

144:                                              ; preds = %129
  %145 = call i32 (i8*, ...) @printf(i8* getelementptr inbounds ([2 x i8], [2 x i8]* @.str.2, i64 0, i64 0))
  %146 = load i32, i32* %7, align 4
  %147 = add nsw i32 %146, 1
  store i32 %147, i32* %7, align 4
  br label %12

148:                                              ; preds = %12
  ret void
}

declare dso_local i32 @__isoc99_scanf(i8*, ...) #1

declare dso_local i32 @printf(i8*, ...) #1

; Function Attrs: nounwind readonly
declare dso_local i64 @strlen(i8*) #2


!llvm.module.flags = !{!0}
!llvm.ident = !{!1}

!0 = !{i32 1, !"wchar_size", i32 4}
!1 = !{!"clang version 10.0.0-4ubuntu1 "}
